; Function Attrs: mustprogress uwtable
define void @_ZN32pxrInternal_v0_24__pxrReserved__23PcpLayerStackIdentifierC2Ev(ptr noundef nonnull align 8 dereferenceable(80) %0) unnamed_addr #0 align 2 personality ptr @__gxx_personality_v0 {
  %2 = getelementptr inbounds nuw i8, ptr %0, i64 56
  tail call void @llvm.memset.p0.i64(ptr noundef nonnull align 8 dereferenceable(56) %0, i8 0, i64 56, i1 false)
  invoke void @_ZN32pxrInternal_v0_24__pxrReserved__28PcpExpressionVariablesSourceC1Ev(ptr noundef nonnull align 8 dereferenceable(16) %2)
          to label %3 unwind label %5

3:                                                ; preds = %1
  %4 = getelementptr inbounds nuw i8, ptr %0, i64 72
  store i64 0, ptr %4, align 8
  ret void

5:                                                ; preds = %1
  %6 = landingpad { ptr, i32 }
          cleanup
  %7 = getelementptr inbounds nuw i8, ptr %0, i64 32
  tail call void @_ZN32pxrInternal_v0_24__pxrReserved__17ArResolverContextD2Ev(ptr noundef nonnull align 8 dereferenceable(24) %7) #14
  %8 = getelementptr inbounds i8, ptr %0, i64 24
  %9 = load ptr, ptr %8, align 8
  %.not.i.i.i.i = icmp eq ptr %9, null
  br i1 %.not.i.i.i.i, label %_ZN32pxrInternal_v0_24__pxrReserved__9TfWeakPtrINS_8SdfLayerEED2Ev.exit, label %_ZN32pxrInternal_v0_24__pxrReserved__17Tf_RefPtr_Counter9RemoveRefEPKNS_9TfRefBaseE.exit.i.i.i

_ZN32pxrInternal_v0_24__pxrReserved__17Tf_RefPtr_Counter9RemoveRefEPKNS_9TfRefBaseE.exit.i.i.i: ; preds = %5
  %10 = getelementptr inbounds nuw i8, ptr %9, i64 8
  %11 = atomicrmw sub ptr %10, i32 1 release, align 4
  %12 = icmp eq i32 %11, 1
  br i1 %12, label %13, label %_ZN32pxrInternal_v0_24__pxrReserved__9TfWeakPtrINS_8SdfLayerEED2Ev.exit

13:                                               ; preds = %_ZN32pxrInternal_v0_24__pxrReserved__17Tf_RefPtr_Counter9RemoveRefEPKNS_9TfRefBaseE.exit.i.i.i
  %14 = load ptr, ptr %9, align 8
  %15 = getelementptr inbounds i8, ptr %14, i64 8
  %16 = load ptr, ptr %15, align 8
  tail call void %16(ptr noundef nonnull align 8 dereferenceable(12) %9) #14
  br label %_ZN32pxrInternal_v0_24__pxrReserved__9TfWeakPtrINS_8SdfLayerEED2Ev.exit

_ZN32pxrInternal_v0_24__pxrReserved__9TfWeakPtrINS_8SdfLayerEED2Ev.exit: ; preds = %13, %_ZN32pxrInternal_v0_24__pxrReserved__17Tf_RefPtr_Counter9RemoveRefEPKNS_9TfRefBaseE.exit.i.i.i, %5
  %17 = getelementptr inbounds nuw i8, ptr %0, i64 8
  %18 = load ptr, ptr %17, align 8
  %.not.i.i.i.i4 = icmp eq ptr %18, null
  br i1 %.not.i.i.i.i4, label %_ZN32pxrInternal_v0_24__pxrReserved__9TfWeakPtrINS_8SdfLayerEED2Ev.exit6, label %_ZN32pxrInternal_v0_24__pxrReserved__17Tf_RefPtr_Counter9RemoveRefEPKNS_9TfRefBaseE.exit.i.i.i5

_ZN32pxrInternal_v0_24__pxrReserved__17Tf_RefPtr_Counter9RemoveRefEPKNS_9TfRefBaseE.exit.i.i.i5: ; preds = %_ZN32pxrInternal_v0_24__pxrReserved__9TfWeakPtrINS_8SdfLayerEED2Ev.exit
  %19 = getelementptr inbounds nuw i8, ptr %18, i64 8
  %20 = atomicrmw sub ptr %19, i32 1 release, align 4
  %21 = icmp eq i32 %20, 1
  br i1 %21, label %22, label %_ZN32pxrInternal_v0_24__pxrReserved__9TfWeakPtrINS_8SdfLayerEED2Ev.exit6

22:                                               ; preds = %_ZN32pxrInternal_v0_24__pxrReserved__17Tf_RefPtr_Counter9RemoveRefEPKNS_9TfRefBaseE.exit.i.i.i5
  %23 = load ptr, ptr %18, align 8
  %24 = getelementptr inbounds i8, ptr %23, i64 8
  %25 = load ptr, ptr %24, align 8
  tail call void %25(ptr noundef nonnull align 8 dereferenceable(12) %18) #14
  br label %_ZN32pxrInternal_v0_24__pxrReserved__9TfWeakPtrINS_8SdfLayerEED2Ev.exit6

_ZN32pxrInternal_v0_24__pxrReserved__9TfWeakPtrINS_8SdfLayerEED2Ev.exit6: ; preds = %_ZN32pxrInternal_v0_24__pxrReserved__9TfWeakPtrINS_8SdfLayerEED2Ev.exit, %_ZN32pxrInternal_v0_24__pxrReserved__17Tf_RefPtr_Counter9RemoveRefEPKNS_9TfRefBaseE.exit.i.i.i5, %22
  resume { ptr, i32 } %6
}